Certificate:
    Data:
        Version: 1 (0x0)
        Serial Number:
            c6:84:b2:30:a5:b3:a9:96
        Signature Algorithm: sha256WithRSAEncryption
        Issuer: CN=AeroFS CA, C=US, ST=California, L=San Francisco, O=aerofs.com/emailAddress=yuri@aerofs.com
        Validity
            Not Before: May  3 19:00:57 2012 GMT
            Not After : May  3 19:00:57 2013 GMT
        Subject: CN=AeroFS CA, C=US, ST=California, L=San Francisco, O=aerofs.com/emailAddress=yuri@aerofs.com
        Subject Public Key Info:
            Public Key Algorithm: rsaEncryption
            RSA Public Key: (2048 bit)
                Modulus (2048 bit):
                    00:9d:27:e9:c4:1e:e7:d3:0f:17:52:89:de:7e:d5:
                    40:be:5b:94:b7:76:4e:c4:16:08:99:a3:33:26:bc:
                    94:36:89:8d:bc:8a:27:fe:00:cb:8d:67:d0:c7:59:
                    92:a2:9b:9f:93:20:b0:90:7a:c3:bf:36:7f:83:40:
                    fc:91:5a:fa:5e:56:b2:c4:4d:66:15:8f:f9:85:2b:
                    37:0b:2a:d6:4d:e4:f7:01:d3:06:49:26:ae:45:6a:
                    01:ae:b1:12:27:66:02:b3:3c:05:d0:b1:80:16:8c:
                    c3:e5:b0:36:db:88:32:ae:71:2e:92:bf:4e:90:ab:
                    48:30:78:e4:4d:75:ae:6e:5a:84:22:83:c7:0b:5f:
                    ba:82:5e:8e:f4:96:67:91:78:78:91:f2:b3:9e:1c:
                    82:d3:2d:e5:5c:0b:07:fb:ba:31:dd:61:c6:68:66:
                    76:41:ee:5c:80:58:18:45:67:cb:53:13:de:a5:4d:
                    0d:c8:c7:ed:df:30:a6:c4:24:23:ef:48:9d:69:fc:
                    5b:16:6c:d0:88:1e:9c:1d:64:ee:36:9f:9f:9c:a6:
                    51:e7:53:87:5f:cd:e6:a1:1a:b1:dc:b6:6b:34:4e:
                    d3:55:83:35:25:34:aa:68:04:10:78:37:b8:2c:78:
                    fc:39:6b:7c:cb:aa:7d:84:ff:9a:36:28:7e:0a:01:
                    fc:6d
                Exponent: 65537 (0x10001)
    Signature Algorithm: sha256WithRSAEncryption
        40:26:4c:c0:fd:84:f2:35:4b:60:91:fd:c0:cc:49:ce:4f:d5:
        70:fb:c8:92:aa:db:a2:0d:32:42:48:32:06:aa:e1:57:cf:73:
        be:71:8c:75:ff:05:af:1b:34:a8:64:a2:bf:00:c1:24:22:4b:
        09:ef:bf:7a:ef:0e:07:7c:6c:77:62:75:54:a5:dc:eb:14:1b:
        32:8d:36:6d:0f:f7:bb:a4:37:aa:1f:9d:a6:23:49:eb:ec:51:
        1f:5d:5b:b8:ca:1d:5f:8d:50:95:70:d4:3c:36:51:4a:4b:41:
        83:fb:f3:d5:e8:71:2a:b4:ec:00:43:a1:f3:3f:1a:b7:83:3a:
        34:56:3a:91:11:e8:b9:ff:7e:ad:7b:d5:db:bd:10:de:7e:a9:
        a2:51:b2:18:e4:d7:44:79:c4:af:4b:53:7f:b0:fe:81:5b:4d:
        2f:1a:84:dc:2a:d5:7e:a3:15:22:6d:52:a8:66:eb:6f:e9:59:
        a0:3c:f4:82:26:9b:9b:aa:73:dc:fa:93:9c:0a:3a:fe:0a:84:
        e0:79:ea:6e:8f:98:4a:cd:62:d0:51:1b:99:8e:2f:4f:ff:52:
        a5:e8:b0:34:75:33:39:33:94:04:60:84:5f:dd:68:e2:a9:17:
        9d:b7:92:08:92:6d:2e:fd:92:4b:6f:48:59:62:d6:ff:e8:85:
        03:cd:bb:45
-----BEGIN CERTIFICATE-----
MIIDhDCCAmwCCQDGhLIwpbOpljANBgkqhkiG9w0BAQsFADCBgzESMBAGA1UEAxMJ
QWVyb0ZTIENBMQswCQYDVQQGEwJVUzETMBEGA1UECBMKQ2FsaWZvcm5pYTEWMBQG
A1UEBxMNU2FuIEZyYW5jaXNjbzETMBEGA1UEChMKYWVyb2ZzLmNvbTEeMBwGCSqG
SIb3DQEJARYPeXVyaUBhZXJvZnMuY29tMB4XDTEyMDUwMzE5MDA1N1oXDTEzMDUw
MzE5MDA1N1owgYMxEjAQBgNVBAMTCUFlcm9GUyBDQTELMAkGA1UEBhMCVVMxEzAR
BgNVBAgTCkNhbGlmb3JuaWExFjAUBgNVBAcTDVNhbiBGcmFuY2lzY28xEzARBgNV
BAoTCmFlcm9mcy5jb20xHjAcBgkqhkiG9w0BCQEWD3l1cmlAYWVyb2ZzLmNvbTCC
ASIwDQYJKoZIhvcNAQEBBQADggEPADCCAQoCggEBAJ0n6cQe59MPF1KJ3n7VQL5b
lLd2TsQWCJmjMya8lDaJjbyKJ/4Ay41n0MdZkqKbn5MgsJB6w782f4NA/JFa+l5W
ssRNZhWP+YUrNwsq1k3k9wHTBkkmrkVqAa6xEidmArM8BdCxgBaMw+WwNtuIMq5x
LpK/TpCrSDB45E11rm5ahCKDxwtfuoJejvSWZ5F4eJHys54cgtMt5VwLB/u6Md1h
xmhmdkHuXIBYGEVny1MT3qVNDcjH7d8wpsQkI+9InWn8WxZs0IgenB1k7jafn5ym
UedTh1/N5qEasdy2azRO01WDNSU0qmgEEHg3uCx4/DlrfMuqfYT/mjYofgoB/G0C
AwEAATANBgkqhkiG9w0BAQsFAAOCAQEAQCZMwP2E8jVLYJH9wMxJzk/VcPvIkqrb
og0yQkgyBqrhV89zvnGMdf8Frxs0qGSivwDBJCJLCe+/eu8OB3xsd2J1VKXc6xQb
Mo02bQ/3u6Q3qh+dpiNJ6+xRH11buModX41QlXDUPDZRSktBg/vz1ehxKrTsAEOh
8z8at4M6NFY6kRHouf9+rXvV270Q3n6polGyGOTXRHnEr0tTf7D+gVtNLxqE3CrV
fqMVIm1SqGbrb+lZoDz0giabm6pz3PqTnAo6/gqE4Hnqbo+YSs1i0FEbmY4vT/9S
peiwNHUzOTOUBGCEX91o4qkXnbeSCJJtLv2SS29IWWLW/+iFA827RQ==
-----END CERTIFICATE-----
